target datalayout = "e-m:e-p270:32:32-p271:32:32-p272:64:64-i64:64-i128:128-f80:128-n8:16:32:64-S128"
target triple = "x86_64-pc-linux-gnu"

%struct._typeobject = type { %struct.PyVarObject, ptr, i64, i64, ptr, i64, ptr, ptr, ptr, ptr, ptr, ptr, ptr, ptr, ptr, ptr, ptr, ptr, ptr, i64, ptr, ptr, ptr, ptr, i64, ptr, ptr, ptr, ptr, ptr, ptr, ptr, ptr, ptr, i64, ptr, ptr, ptr, ptr, ptr, ptr, ptr, ptr, ptr, ptr, ptr, i32, ptr, ptr, i8, i16 }
%struct.PyVarObject = type { %struct._object, i64 }
%struct._object = type { %union.anon, ptr }
%union.anon = type { i64 }
%struct.PyStatus = type { i32, ptr, ptr, i32 }

@UnraisableHookArgsType = internal global %struct._typeobject zeroinitializer, align 8
@__func__._PyErr_InitTypes = private unnamed_addr constant [17 x i8] c"_PyErr_InitTypes\00", align 1
@.str.17 = private unnamed_addr constant [45 x i8] c"failed to initialize UnraisableHookArgs type\00", align 1
@UnraisableHookArgs_desc = internal global { ptr, ptr, ptr, i32, [4 x i8] } { ptr @.str.31, ptr @UnraisableHookArgs__doc__, ptr @UnraisableHookArgs_fields, i32 5, [4 x i8] zeroinitializer }, align 8

; Function Attrs: inlinehint nounwind uwtable
define internal i32 @_PyStructSequence_InitBuiltin(ptr noundef %0, ptr noundef %1, ptr noundef %2) #2 {
  %4 = alloca ptr, align 8
  %5 = alloca ptr, align 8
  %6 = alloca ptr, align 8
  store ptr %0, ptr %4, align 8, !tbaa !53
  store ptr %1, ptr %5, align 8, !tbaa !37
  store ptr %2, ptr %6, align 8, !tbaa !59
  %7 = load ptr, ptr %4, align 8, !tbaa !53
  %8 = load ptr, ptr %5, align 8, !tbaa !37
  %9 = load ptr, ptr %6, align 8, !tbaa !59
  %10 = call i32 @_PyStructSequence_InitBuiltinWithFlags(ptr noundef %7, ptr noundef %8, ptr noundef %9, i64 noundef 0)
  ret i32 %10
}

; Function Attrs: nounwind uwtable
define hidden void @_PyErr_InitTypes(ptr dead_on_unwind noalias writable sret(%struct.PyStatus) align 8 %0, ptr noundef %1) #0 {
  %3 = alloca ptr, align 8
  store ptr %1, ptr %3, align 8, !tbaa !53
  %4 = load ptr, ptr %3, align 8, !tbaa !53
  %5 = call i32 @_PyStructSequence_InitBuiltin(ptr noundef %4, ptr noundef @UnraisableHookArgsType, ptr noundef @UnraisableHookArgs_desc)
  %6 = icmp slt i32 %5, 0
  br i1 %6, label %7, label %14

7:                                                ; preds = %2
  %8 = getelementptr inbounds nuw %struct.PyStatus, ptr %0, i32 0, i32 0
  store i32 1, ptr %8, align 8, !tbaa !54
  %9 = getelementptr i8, ptr %0, i64 4
  call void @llvm.memset.p0.i64(ptr align 4 %9, i8 0, i64 4, i1 false)
  %10 = getelementptr inbounds nuw %struct.PyStatus, ptr %0, i32 0, i32 1
  store ptr @__func__._PyErr_InitTypes, ptr %10, align 8, !tbaa !56
  %11 = getelementptr inbounds nuw %struct.PyStatus, ptr %0, i32 0, i32 2
  store ptr @.str.17, ptr %11, align 8, !tbaa !57
  %12 = getelementptr inbounds nuw %struct.PyStatus, ptr %0, i32 0, i32 3
  store i32 0, ptr %12, align 8, !tbaa !58
  %13 = getelementptr i8, ptr %0, i64 28
  call void @llvm.memset.p0.i64(ptr align 4 %13, i8 0, i64 4, i1 false)
  br label %16

14:                                               ; preds = %2
  call void @llvm.memset.p0.i64(ptr align 8 %0, i8 0, i64 32, i1 false)
  %15 = getelementptr inbounds nuw %struct.PyStatus, ptr %0, i32 0, i32 0
  store i32 0, ptr %15, align 8, !tbaa !54
  br label %16

16:                                               ; preds = %14, %7
  ret void
}