; Function Attrs: nounwind uwtable
define hidden void @_PyErr_InitTypes(ptr dead_on_unwind noalias writable writeonly sret(%struct.PyStatus) align 8 captures(none) initializes((0, 32)) %0, ptr noundef %1) local_unnamed_addr #0 {
  %3 = tail call i32 @_PyStructSequence_InitBuiltinWithFlags(ptr noundef %1, ptr noundef nonnull @UnraisableHookArgsType, ptr noundef nonnull @UnraisableHookArgs_desc, i64 noundef 0) #17
  %4 = icmp slt i32 %3, 0
  br i1 %4, label %5, label %11

5:                                                ; preds = %2
  %6 = getelementptr inbounds nuw i8, ptr %0, i64 4
  store i32 0, ptr %6, align 4
  %7 = getelementptr inbounds nuw i8, ptr %0, i64 8
  store ptr @__func__._PyErr_InitTypes, ptr %7, align 8, !tbaa !47
  %8 = getelementptr inbounds nuw i8, ptr %0, i64 16
  store ptr @.str.17, ptr %8, align 8, !tbaa !49
  %9 = getelementptr inbounds nuw i8, ptr %0, i64 24
  store i32 0, ptr %9, align 8, !tbaa !50
  %10 = getelementptr inbounds nuw i8, ptr %0, i64 28
  store i32 0, ptr %10, align 4
  br label %12

11:                                               ; preds = %2
  tail call void @llvm.memset.p0.i64(ptr noundef nonnull align 8 dereferenceable(32) %0, i8 0, i64 32, i1 false)
  br label %12

12:                                               ; preds = %11, %5
  %.sink = phi i32 [ 1, %5 ], [ 0, %11 ]
  store i32 %.sink, ptr %0, align 8, !tbaa !51
  ret void
}